target datalayout = "e-m:e-p270:32:32-p271:32:32-p272:64:64-i64:64-i128:128-f80:128-n8:16:32:64-S128"
target triple = "x86_64-pc-linux-gnu"

%"class.icu_77::StringEnumeration" = type <{ %"class.icu_77::UObject", %"class.icu_77::UnicodeString", [32 x i8], ptr, i32, [4 x i8] }>
%"class.icu_77::UObject" = type { ptr }
%"class.icu_77::UnicodeString" = type { %"class.icu_77::Replaceable", %"union.icu_77::UnicodeString::StackBufferOrFields" }
%"class.icu_77::Replaceable" = type { %"class.icu_77::UObject" }
%"union.icu_77::UnicodeString::StackBufferOrFields" = type { %struct.anon.0, [32 x i8] }
%struct.anon.0 = type { i16, i32, i32, ptr }

; Function Attrs: inlinehint mustprogress nounwind uwtable
define linkonce_odr noundef i32 @_ZNK6icu_7713UnicodeString14getShortLengthEv(ptr noundef nonnull align 8 dereferenceable(64) %0) #1 comdat align 2 {
  %2 = alloca ptr, align 8
  store ptr %0, ptr %2, align 8, !tbaa !20
  %3 = load ptr, ptr %2, align 8
  %4 = getelementptr inbounds nuw %"class.icu_77::UnicodeString", ptr %3, i32 0, i32 1
  %5 = getelementptr inbounds nuw %struct.anon.0, ptr %4, i32 0, i32 0
  %6 = load i16, ptr %5, align 8, !tbaa !22
  %7 = sext i16 %6 to i32
  %8 = ashr i32 %7, 5
  ret i32 %8
}

; Function Attrs: inlinehint mustprogress nounwind uwtable
define linkonce_odr noundef signext i8 @_ZNK6icu_7713UnicodeString14hasShortLengthEv(ptr noundef nonnull align 8 dereferenceable(64) %0) #1 comdat align 2 {
  %2 = alloca ptr, align 8
  store ptr %0, ptr %2, align 8, !tbaa !20
  %3 = load ptr, ptr %2, align 8
  %4 = getelementptr inbounds nuw %"class.icu_77::UnicodeString", ptr %3, i32 0, i32 1
  %5 = getelementptr inbounds nuw %struct.anon.0, ptr %4, i32 0, i32 0
  %6 = load i16, ptr %5, align 8, !tbaa !22
  %7 = sext i16 %6 to i32
  %8 = icmp sge i32 %7, 0
  %9 = zext i1 %8 to i8
  ret i8 %9
}

; Function Attrs: inlinehint mustprogress uwtable
define linkonce_odr noundef i32 @_ZNK6icu_7713UnicodeString6lengthEv(ptr noundef nonnull align 8 dereferenceable(64) %0) #2 comdat align 2 {
  %2 = alloca ptr, align 8
  store ptr %0, ptr %2, align 8, !tbaa !20
  %3 = load ptr, ptr %2, align 8
  %4 = call noundef signext i8 @_ZNK6icu_7713UnicodeString14hasShortLengthEv(ptr noundef nonnull align 8 dereferenceable(64) %3)
  %5 = icmp ne i8 %4, 0
  br i1 %5, label %6, label %8

6:                                                ; preds = %1
  %7 = call noundef i32 @_ZNK6icu_7713UnicodeString14getShortLengthEv(ptr noundef nonnull align 8 dereferenceable(64) %3)
  br label %12

8:                                                ; preds = %1
  %9 = getelementptr inbounds nuw %"class.icu_77::UnicodeString", ptr %3, i32 0, i32 1
  %10 = getelementptr inbounds nuw %struct.anon.0, ptr %9, i32 0, i32 1
  %11 = load i32, ptr %10, align 4, !tbaa !22
  br label %12

12:                                               ; preds = %8, %6
  %13 = phi i32 [ %7, %6 ], [ %11, %8 ]
  ret i32 %13
}

; Function Attrs: inlinehint mustprogress nounwind uwtable
define internal noundef signext i8 @_ZL9U_SUCCESS10UErrorCode(i32 noundef %0) #1 {
  %2 = alloca i32, align 4
  store i32 %0, ptr %2, align 4, !tbaa !26
  %3 = load i32, ptr %2, align 4, !tbaa !26
  %4 = icmp sle i32 %3, 0
  %5 = zext i1 %4 to i8
  ret i8 %5
}

; Function Attrs: mustprogress uwtable
define noundef ptr @_ZN6icu_7717StringEnumeration5unextEPiR10UErrorCode(ptr noundef nonnull align 8 dereferenceable(116) %0, ptr noundef %1, ptr noundef nonnull align 4 dereferenceable(4) %2) unnamed_addr #0 align 2 {
  %4 = alloca ptr, align 8
  %5 = alloca ptr, align 8
  %6 = alloca ptr, align 8
  %7 = alloca ptr, align 8
  %8 = alloca ptr, align 8
  %9 = alloca i32, align 4
  store ptr %0, ptr %5, align 8, !tbaa !3
  store ptr %1, ptr %6, align 8, !tbaa !23
  store ptr %2, ptr %7, align 8, !tbaa !25
  %10 = load ptr, ptr %5, align 8
  call void @llvm.lifetime.start.p0(i64 8, ptr %8) #12
  %11 = load ptr, ptr %7, align 8, !tbaa !25
  %12 = load ptr, ptr %10, align 8, !tbaa !8
  %13 = getelementptr inbounds ptr, ptr %12, i64 7
  %14 = load ptr, ptr %13, align 8
  %15 = call noundef ptr %14(ptr noundef nonnull align 8 dereferenceable(116) %10, ptr noundef nonnull align 4 dereferenceable(4) %11)
  store ptr %15, ptr %8, align 8, !tbaa !20
  %16 = load ptr, ptr %7, align 8, !tbaa !25
  %17 = load i32, ptr %16, align 4, !tbaa !26
  %18 = call noundef signext i8 @_ZL9U_SUCCESS10UErrorCode(i32 noundef %17)
  %19 = icmp ne i8 %18, 0
  br i1 %19, label %20, label %36

20:                                               ; preds = %3
  %21 = load ptr, ptr %8, align 8, !tbaa !20
  %22 = icmp ne ptr %21, null
  br i1 %22, label %23, label %36

23:                                               ; preds = %20
  %24 = load ptr, ptr %8, align 8, !tbaa !20
  %25 = getelementptr inbounds nuw %"class.icu_77::StringEnumeration", ptr %10, i32 0, i32 1
  %26 = call noundef nonnull align 8 dereferenceable(64) ptr @_ZN6icu_7713UnicodeStringaSERKS0_(ptr noundef nonnull align 8 dereferenceable(64) %25, ptr noundef nonnull align 8 dereferenceable(64) %24)
  %27 = load ptr, ptr %6, align 8, !tbaa !23
  %28 = icmp ne ptr %27, null
  br i1 %28, label %29, label %33

29:                                               ; preds = %23
  %30 = getelementptr inbounds nuw %"class.icu_77::StringEnumeration", ptr %10, i32 0, i32 1
  %31 = call noundef i32 @_ZNK6icu_7713UnicodeString6lengthEv(ptr noundef nonnull align 8 dereferenceable(64) %30)
  %32 = load ptr, ptr %6, align 8, !tbaa !23
  store i32 %31, ptr %32, align 4, !tbaa !28
  br label %33

33:                                               ; preds = %29, %23
  %34 = getelementptr inbounds nuw %"class.icu_77::StringEnumeration", ptr %10, i32 0, i32 1
  %35 = call noundef ptr @_ZN6icu_7713UnicodeString19getTerminatedBufferEv(ptr noundef nonnull align 8 dereferenceable(64) %34)
  store ptr %35, ptr %4, align 8
  store i32 1, ptr %9, align 4
  br label %37

36:                                               ; preds = %20, %3
  store ptr null, ptr %4, align 8
  store i32 1, ptr %9, align 4
  br label %37

37:                                               ; preds = %36, %33
  call void @llvm.lifetime.end.p0(i64 8, ptr %8) #12
  %38 = load ptr, ptr %4, align 8
  ret ptr %38
}