; Function Attrs: mustprogress uwtable
define noundef ptr @_ZN6icu_7717StringEnumeration5unextEPiR10UErrorCode(ptr noundef nonnull align 8 dereferenceable(116) %0, ptr noundef writeonly %1, ptr noundef nonnull align 4 dereferenceable(4) %2) unnamed_addr #9 align 2 {
  %4 = load ptr, ptr %0, align 8, !tbaa !3
  %5 = getelementptr inbounds nuw i8, ptr %4, i64 56
  %6 = load ptr, ptr %5, align 8
  %7 = tail call noundef ptr %6(ptr noundef nonnull align 8 dereferenceable(116) %0, ptr noundef nonnull align 4 dereferenceable(4) %2)
  %8 = load i32, ptr %2, align 4, !tbaa !17
  %9 = icmp slt i32 %8, 1
  %10 = icmp ne ptr %7, null
  %or.cond = and i1 %10, %9
  br i1 %or.cond, label %11, label %25

11:                                               ; preds = %3
  %12 = getelementptr inbounds nuw i8, ptr %0, i64 8
  %13 = tail call noundef nonnull align 8 dereferenceable(64) ptr @_ZN6icu_7713UnicodeStringaSERKS0_(ptr noundef nonnull align 8 dereferenceable(64) %12, ptr noundef nonnull align 8 dereferenceable(64) %7)
  %.not = icmp eq ptr %1, null
  br i1 %.not, label %23, label %14

14:                                               ; preds = %11
  %15 = getelementptr inbounds nuw i8, ptr %0, i64 16
  %16 = load i16, ptr %15, align 8, !tbaa !6
  %17 = icmp slt i16 %16, 0
  %18 = ashr i16 %16, 5
  %19 = sext i16 %18 to i32
  %20 = getelementptr inbounds nuw i8, ptr %0, i64 20
  %21 = load i32, ptr %20, align 4
  %22 = select i1 %17, i32 %21, i32 %19
  store i32 %22, ptr %1, align 4, !tbaa !19
  br label %23

23:                                               ; preds = %14, %11
  %24 = tail call noundef ptr @_ZN6icu_7713UnicodeString19getTerminatedBufferEv(ptr noundef nonnull align 8 dereferenceable(64) %12)
  br label %25

25:                                               ; preds = %3, %23
  %.0 = phi ptr [ %24, %23 ], [ null, %3 ]
  ret ptr %.0
}